; Function Attrs: mustprogress nofree norecurse nosync nounwind willreturn memory(read, inaccessiblemem: none) uwtable
define noundef zeroext i1 @_ZNK32pxrInternal_v0_24__pxrReserved__7SdfPath14IsRootPrimPathEv(ptr nocapture noundef nonnull readonly align 4 dereferenceable(8) %0) local_unnamed_addr #8 align 2 personality ptr @__gxx_personality_v0 {
  %2 = getelementptr inbounds nuw i8, ptr %0, i64 4
  %3 = load i32, ptr %2, align 4
  %.not6 = icmp eq i32 %3, 0
  br i1 %.not6, label %4, label %22

4:                                                ; preds = %1
  %5 = load i32, ptr %0, align 4
  %6 = and i32 %5, 255
  %7 = lshr i32 %5, 8
  %8 = zext nneg i32 %6 to i64
  %9 = getelementptr inbounds [257 x ptr], ptr @_ZN32pxrInternal_v0_24__pxrReserved__8Sdf_PoolINS_15Sdf_PathPrimTagELj24ELj8ELj16384EE13_regionStartsE, i64 0, i64 %8
  %10 = load ptr, ptr %9, align 8
  %11 = mul nuw nsw i32 %7, 24
  %12 = zext nneg i32 %11 to i64
  %13 = getelementptr inbounds i8, ptr %10, i64 %12
  %.not = icmp eq ptr %10, null
  br i1 %.not, label %22, label %14

14:                                               ; preds = %4
  %15 = getelementptr inbounds nuw i8, ptr %13, i64 15
  %16 = load i8, ptr %15, align 1
  %17 = and i8 %16, 1
  %.not7 = icmp eq i8 %17, 0
  br i1 %.not7, label %22, label %18

18:                                               ; preds = %14
  %19 = getelementptr inbounds nuw i8, ptr %13, i64 12
  %20 = load i16, ptr %19, align 4
  %21 = icmp eq i16 %20, 1
  br label %22

22:                                               ; preds = %4, %14, %18, %1
  %.0 = phi i1 [ false, %1 ], [ false, %14 ], [ false, %4 ], [ %21, %18 ]
  ret i1 %.0
}